; Function Attrs: nounwind uwtable
define ptr @evhttp_start(ptr noundef %0, i16 noundef zeroext %1) local_unnamed_addr #0 {
  %3 = tail call ptr @event_mm_calloc_(i64 noundef 1, i64 noundef 280) #18
  %4 = icmp eq ptr %3, null
  br i1 %4, label %evhttp_new_object.exit.thread, label %5

evhttp_new_object.exit.thread:                    ; preds = %2
  tail call void (ptr, ...) @event_warn(ptr noundef nonnull @.str.31, ptr noundef nonnull @__func__.evhttp_new_object) #18
  br label %25

5:                                                ; preds = %2
  %6 = getelementptr inbounds nuw i8, ptr %3, i64 128
  %7 = getelementptr inbounds nuw i8, ptr %3, i64 160
  tail call void @llvm.memset.p0.i64(ptr noundef nonnull align 8 dereferenceable(32) %6, i8 0, i64 32, i1 false)
  %8 = getelementptr inbounds nuw i8, ptr %3, i64 184
  tail call void @llvm.memset.p0.i64(ptr noundef nonnull align 8 dereferenceable(16) %7, i8 -1, i64 16, i1 false)
  store ptr @.str.159, ptr %8, align 8
  %9 = getelementptr inbounds nuw i8, ptr %3, i64 192
  store i32 31, ptr %9, align 8
  %10 = getelementptr inbounds nuw i8, ptr %3, i64 16
  store ptr null, ptr %10, align 8
  %11 = getelementptr inbounds nuw i8, ptr %3, i64 24
  store ptr %10, ptr %11, align 8
  %12 = getelementptr inbounds nuw i8, ptr %3, i64 32
  store ptr null, ptr %12, align 8
  %13 = getelementptr inbounds nuw i8, ptr %3, i64 40
  store ptr %12, ptr %13, align 8
  %14 = getelementptr inbounds nuw i8, ptr %3, i64 48
  store ptr null, ptr %14, align 8
  %15 = getelementptr inbounds nuw i8, ptr %3, i64 56
  store ptr %14, ptr %15, align 8
  %16 = getelementptr inbounds nuw i8, ptr %3, i64 64
  store ptr null, ptr %16, align 8
  %17 = getelementptr inbounds nuw i8, ptr %3, i64 72
  store ptr %16, ptr %17, align 8
  %18 = getelementptr inbounds nuw i8, ptr %3, i64 88
  store ptr null, ptr %18, align 8
  %19 = getelementptr inbounds nuw i8, ptr %3, i64 96
  store ptr %18, ptr %19, align 8
  %20 = getelementptr inbounds nuw i8, ptr %3, i64 104
  store ptr null, ptr %20, align 8
  %21 = getelementptr inbounds nuw i8, ptr %3, i64 112
  store ptr %20, ptr %21, align 8
  %22 = tail call ptr @evhttp_bind_socket_with_handle(ptr noundef nonnull %3, ptr noundef %0, i16 noundef zeroext %1)
  %23 = icmp eq ptr %22, null
  br i1 %23, label %24, label %25

24:                                               ; preds = %5
  tail call void @event_mm_free_(ptr noundef nonnull %3) #18
  br label %25

25:                                               ; preds = %evhttp_new_object.exit.thread, %5, %24
  %.0 = phi ptr [ null, %24 ], [ %3, %5 ], [ null, %evhttp_new_object.exit.thread ]
  ret ptr %.0
}